target datalayout = "e-m:e-p270:32:32-p271:32:32-p272:64:64-i64:64-i128:128-f80:128-n8:16:32:64-S128"
target triple = "x86_64-pc-linux-gnu"

%struct.jpeg_compress_struct = type { ptr, ptr, ptr, ptr, i32, i32, ptr, i32, i32, i32, i32, double, i32, i32, i32, ptr, [4 x ptr], [4 x ptr], [4 x ptr], [16 x i8], [16 x i8], [16 x i8], i32, ptr, i32, i32, i32, i32, i32, i32, i32, i32, i32, i8, i8, i8, i16, i16, i32, i32, i32, i32, i32, i32, i32, [4 x ptr], i32, i32, i32, [10 x i32], i32, i32, i32, i32, ptr, ptr, ptr, ptr, ptr, ptr, ptr, ptr, ptr, ptr, i32 }
%struct.jpeg_destination_mgr = type { ptr, i64, ptr, ptr, ptr }
%struct.jpeg_error_mgr = type { ptr, ptr, ptr, ptr, ptr, i32, %union.anon, i32, i64, ptr, i32, ptr, i32, i32 }
%union.anon = type { [8 x i32], [48 x i8] }
%struct.my_mem_destination_mgr = type { %struct.jpeg_destination_mgr, ptr, ptr, ptr, ptr, i64 }

; Function Attrs: nounwind uwtable
define internal i32 @empty_mem_output_buffer(ptr noundef %0) #0 {
  %2 = alloca ptr, align 8
  %3 = alloca i64, align 8
  %4 = alloca ptr, align 8
  %5 = alloca ptr, align 8
  store ptr %0, ptr %2, align 8, !tbaa !3
  call void @llvm.lifetime.start.p0(i64 8, ptr %3) #6
  call void @llvm.lifetime.start.p0(i64 8, ptr %4) #6
  call void @llvm.lifetime.start.p0(i64 8, ptr %5) #6
  %6 = load ptr, ptr %2, align 8, !tbaa !3
  %7 = getelementptr inbounds nuw %struct.jpeg_compress_struct, ptr %6, i32 0, i32 6
  %8 = load ptr, ptr %7, align 8, !tbaa !10
  store ptr %8, ptr %5, align 8, !tbaa !40
  %9 = load ptr, ptr %5, align 8, !tbaa !40
  %10 = getelementptr inbounds nuw %struct.my_mem_destination_mgr, ptr %9, i32 0, i32 5
  %11 = load i64, ptr %10, align 8, !tbaa !64
  %12 = mul i64 %11, 2
  store i64 %12, ptr %3, align 8, !tbaa !49
  %13 = load i64, ptr %3, align 8, !tbaa !49
  %14 = call noalias ptr @malloc(i64 noundef %13) #7
  store ptr %14, ptr %4, align 8, !tbaa !60
  %15 = load ptr, ptr %4, align 8, !tbaa !60
  %16 = icmp eq ptr %15, null
  br i1 %16, label %17, label %33

17:                                               ; preds = %1
  %18 = load ptr, ptr %2, align 8, !tbaa !3
  %19 = getelementptr inbounds nuw %struct.jpeg_compress_struct, ptr %18, i32 0, i32 0
  %20 = load ptr, ptr %19, align 8, !tbaa !35
  %21 = getelementptr inbounds nuw %struct.jpeg_error_mgr, ptr %20, i32 0, i32 5
  store i32 54, ptr %21, align 8, !tbaa !36
  %22 = load ptr, ptr %2, align 8, !tbaa !3
  %23 = getelementptr inbounds nuw %struct.jpeg_compress_struct, ptr %22, i32 0, i32 0
  %24 = load ptr, ptr %23, align 8, !tbaa !35
  %25 = getelementptr inbounds nuw %struct.jpeg_error_mgr, ptr %24, i32 0, i32 6
  %26 = getelementptr inbounds [8 x i32], ptr %25, i64 0, i64 0
  store i32 10, ptr %26, align 4, !tbaa !61
  %27 = load ptr, ptr %2, align 8, !tbaa !3
  %28 = getelementptr inbounds nuw %struct.jpeg_compress_struct, ptr %27, i32 0, i32 0
  %29 = load ptr, ptr %28, align 8, !tbaa !35
  %30 = getelementptr inbounds nuw %struct.jpeg_error_mgr, ptr %29, i32 0, i32 0
  %31 = load ptr, ptr %30, align 8, !tbaa !39
  %32 = load ptr, ptr %2, align 8, !tbaa !3
  call void %31(ptr noundef %32)
  br label %33

33:                                               ; preds = %17, %1
  %34 = load ptr, ptr %4, align 8, !tbaa !60
  %35 = load ptr, ptr %5, align 8, !tbaa !40
  %36 = getelementptr inbounds nuw %struct.my_mem_destination_mgr, ptr %35, i32 0, i32 4
  %37 = load ptr, ptr %36, align 8, !tbaa !62
  %38 = load ptr, ptr %5, align 8, !tbaa !40
  %39 = getelementptr inbounds nuw %struct.my_mem_destination_mgr, ptr %38, i32 0, i32 5
  %40 = load i64, ptr %39, align 8, !tbaa !64
  call void @llvm.memcpy.p0.p0.i64(ptr align 1 %34, ptr align 1 %37, i64 %40, i1 false)
  %41 = load ptr, ptr %5, align 8, !tbaa !40
  %42 = getelementptr inbounds nuw %struct.my_mem_destination_mgr, ptr %41, i32 0, i32 3
  %43 = load ptr, ptr %42, align 8, !tbaa !59
  call void @free(ptr noundef %43) #6
  %44 = load ptr, ptr %4, align 8, !tbaa !60
  %45 = load ptr, ptr %5, align 8, !tbaa !40
  %46 = getelementptr inbounds nuw %struct.my_mem_destination_mgr, ptr %45, i32 0, i32 3
  store ptr %44, ptr %46, align 8, !tbaa !59
  %47 = load ptr, ptr %4, align 8, !tbaa !60
  %48 = load ptr, ptr %5, align 8, !tbaa !40
  %49 = getelementptr inbounds nuw %struct.my_mem_destination_mgr, ptr %48, i32 0, i32 5
  %50 = load i64, ptr %49, align 8, !tbaa !64
  %51 = getelementptr inbounds nuw i8, ptr %47, i64 %50
  %52 = load ptr, ptr %5, align 8, !tbaa !40
  %53 = getelementptr inbounds nuw %struct.my_mem_destination_mgr, ptr %52, i32 0, i32 0
  %54 = getelementptr inbounds nuw %struct.jpeg_destination_mgr, ptr %53, i32 0, i32 0
  store ptr %51, ptr %54, align 8, !tbaa !63
  %55 = load ptr, ptr %5, align 8, !tbaa !40
  %56 = getelementptr inbounds nuw %struct.my_mem_destination_mgr, ptr %55, i32 0, i32 5
  %57 = load i64, ptr %56, align 8, !tbaa !64
  %58 = load ptr, ptr %5, align 8, !tbaa !40
  %59 = getelementptr inbounds nuw %struct.my_mem_destination_mgr, ptr %58, i32 0, i32 0
  %60 = getelementptr inbounds nuw %struct.jpeg_destination_mgr, ptr %59, i32 0, i32 1
  store i64 %57, ptr %60, align 8, !tbaa !65
  %61 = load ptr, ptr %4, align 8, !tbaa !60
  %62 = load ptr, ptr %5, align 8, !tbaa !40
  %63 = getelementptr inbounds nuw %struct.my_mem_destination_mgr, ptr %62, i32 0, i32 4
  store ptr %61, ptr %63, align 8, !tbaa !62
  %64 = load i64, ptr %3, align 8, !tbaa !49
  %65 = load ptr, ptr %5, align 8, !tbaa !40
  %66 = getelementptr inbounds nuw %struct.my_mem_destination_mgr, ptr %65, i32 0, i32 5
  store i64 %64, ptr %66, align 8, !tbaa !64
  call void @llvm.lifetime.end.p0(i64 8, ptr %5) #6
  call void @llvm.lifetime.end.p0(i64 8, ptr %4) #6
  call void @llvm.lifetime.end.p0(i64 8, ptr %3) #6
  ret i32 1
}