; Function Attrs: nounwind uwtable
define internal noundef i32 @empty_mem_output_buffer(ptr noundef %0) #0 {
  %2 = getelementptr inbounds nuw i8, ptr %0, i64 40
  %3 = load ptr, ptr %2, align 8, !tbaa !3
  %4 = getelementptr inbounds nuw i8, ptr %3, i64 72
  %5 = load i64, ptr %4, align 8, !tbaa !58
  %6 = shl i64 %5, 1
  %7 = tail call noalias ptr @malloc(i64 noundef %6) #9
  %8 = icmp eq ptr %7, null
  br i1 %8, label %9, label %15

9:                                                ; preds = %1
  %10 = load ptr, ptr %0, align 8, !tbaa !31
  %11 = getelementptr inbounds nuw i8, ptr %10, i64 40
  store i32 54, ptr %11, align 8, !tbaa !32
  %12 = getelementptr inbounds nuw i8, ptr %10, i64 44
  store i32 10, ptr %12, align 4, !tbaa !55
  %13 = load ptr, ptr %0, align 8, !tbaa !31
  %14 = load ptr, ptr %13, align 8, !tbaa !35
  tail call void %14(ptr noundef nonnull %0) #8
  %.pre = load i64, ptr %4, align 8, !tbaa !58
  br label %15

15:                                               ; preds = %9, %1
  %16 = phi i64 [ %.pre, %9 ], [ %5, %1 ]
  %17 = getelementptr inbounds nuw i8, ptr %3, i64 64
  %18 = load ptr, ptr %17, align 8, !tbaa !56
  tail call void @llvm.memcpy.p0.p0.i64(ptr align 1 %7, ptr align 1 %18, i64 %16, i1 false)
  %19 = getelementptr inbounds nuw i8, ptr %3, i64 56
  %20 = load ptr, ptr %19, align 8, !tbaa !52
  tail call void @free(ptr noundef %20) #8
  store ptr %7, ptr %19, align 8, !tbaa !52
  %21 = load i64, ptr %4, align 8, !tbaa !58
  %22 = getelementptr inbounds nuw i8, ptr %7, i64 %21
  store ptr %22, ptr %3, align 8, !tbaa !57
  %23 = getelementptr inbounds nuw i8, ptr %3, i64 8
  store i64 %21, ptr %23, align 8, !tbaa !59
  store ptr %7, ptr %17, align 8, !tbaa !56
  store i64 %6, ptr %4, align 8, !tbaa !58
  ret i32 1
}